target datalayout = "e-m:e-p270:32:32-p271:32:32-p272:64:64-i64:64-i128:128-f80:128-n8:16:32:64-S128"
target triple = "x86_64-pc-linux-gnu"

; Function Attrs: nounwind uwtable
define internal i32 @vsse_intra8_c(ptr noundef %0, ptr noundef %1, ptr noundef %2, i64 noundef %3, i32 noundef %4) #2 {
  %6 = alloca ptr, align 8
  %7 = alloca ptr, align 8
  %8 = alloca ptr, align 8
  %9 = alloca i64, align 8
  %10 = alloca i32, align 4
  %11 = alloca i32, align 4
  %12 = alloca i32, align 4
  %13 = alloca i32, align 4
  store ptr %0, ptr %6, align 8, !tbaa !22
  store ptr %1, ptr %7, align 8, !tbaa !24
  store ptr %2, ptr %8, align 8, !tbaa !24
  store i64 %3, ptr %9, align 8, !tbaa !26
  store i32 %4, ptr %10, align 4, !tbaa !11
  call void @llvm.lifetime.start.p0(i64 4, ptr %11) #9
  store i32 0, ptr %11, align 4, !tbaa !11
  call void @llvm.lifetime.start.p0(i64 4, ptr %12) #9
  call void @llvm.lifetime.start.p0(i64 4, ptr %13) #9
  store i32 1, ptr %13, align 4, !tbaa !11
  br label %14

14:                                               ; preds = %171, %5
  %15 = load i32, ptr %13, align 4, !tbaa !11
  %16 = load i32, ptr %10, align 4, !tbaa !11
  %17 = icmp slt i32 %15, %16
  br i1 %17, label %18, label %174

18:                                               ; preds = %14
  store i32 0, ptr %12, align 4, !tbaa !11
  br label %19

19:                                               ; preds = %164, %18
  %20 = load i32, ptr %12, align 4, !tbaa !11
  %21 = icmp slt i32 %20, 8
  br i1 %21, label %22, label %167

22:                                               ; preds = %19
  %23 = load ptr, ptr %7, align 8, !tbaa !24
  %24 = load i32, ptr %12, align 4, !tbaa !11
  %25 = sext i32 %24 to i64
  %26 = getelementptr inbounds i8, ptr %23, i64 %25
  %27 = load i8, ptr %26, align 1, !tbaa !36
  %28 = zext i8 %27 to i32
  %29 = load ptr, ptr %7, align 8, !tbaa !24
  %30 = load i32, ptr %12, align 4, !tbaa !11
  %31 = sext i32 %30 to i64
  %32 = load i64, ptr %9, align 8, !tbaa !26
  %33 = add nsw i64 %31, %32
  %34 = getelementptr inbounds i8, ptr %29, i64 %33
  %35 = load i8, ptr %34, align 1, !tbaa !36
  %36 = zext i8 %35 to i32
  %37 = sub nsw i32 %28, %36
  %38 = load ptr, ptr %7, align 8, !tbaa !24
  %39 = load i32, ptr %12, align 4, !tbaa !11
  %40 = sext i32 %39 to i64
  %41 = getelementptr inbounds i8, ptr %38, i64 %40
  %42 = load i8, ptr %41, align 1, !tbaa !36
  %43 = zext i8 %42 to i32
  %44 = load ptr, ptr %7, align 8, !tbaa !24
  %45 = load i32, ptr %12, align 4, !tbaa !11
  %46 = sext i32 %45 to i64
  %47 = load i64, ptr %9, align 8, !tbaa !26
  %48 = add nsw i64 %46, %47
  %49 = getelementptr inbounds i8, ptr %44, i64 %48
  %50 = load i8, ptr %49, align 1, !tbaa !36
  %51 = zext i8 %50 to i32
  %52 = sub nsw i32 %43, %51
  %53 = mul nsw i32 %37, %52
  %54 = load ptr, ptr %7, align 8, !tbaa !24
  %55 = load i32, ptr %12, align 4, !tbaa !11
  %56 = add nsw i32 %55, 1
  %57 = sext i32 %56 to i64
  %58 = getelementptr inbounds i8, ptr %54, i64 %57
  %59 = load i8, ptr %58, align 1, !tbaa !36
  %60 = zext i8 %59 to i32
  %61 = load ptr, ptr %7, align 8, !tbaa !24
  %62 = load i32, ptr %12, align 4, !tbaa !11
  %63 = sext i32 %62 to i64
  %64 = load i64, ptr %9, align 8, !tbaa !26
  %65 = add nsw i64 %63, %64
  %66 = add nsw i64 %65, 1
  %67 = getelementptr inbounds i8, ptr %61, i64 %66
  %68 = load i8, ptr %67, align 1, !tbaa !36
  %69 = zext i8 %68 to i32
  %70 = sub nsw i32 %60, %69
  %71 = load ptr, ptr %7, align 8, !tbaa !24
  %72 = load i32, ptr %12, align 4, !tbaa !11
  %73 = add nsw i32 %72, 1
  %74 = sext i32 %73 to i64
  %75 = getelementptr inbounds i8, ptr %71, i64 %74
  %76 = load i8, ptr %75, align 1, !tbaa !36
  %77 = zext i8 %76 to i32
  %78 = load ptr, ptr %7, align 8, !tbaa !24
  %79 = load i32, ptr %12, align 4, !tbaa !11
  %80 = sext i32 %79 to i64
  %81 = load i64, ptr %9, align 8, !tbaa !26
  %82 = add nsw i64 %80, %81
  %83 = add nsw i64 %82, 1
  %84 = getelementptr inbounds i8, ptr %78, i64 %83
  %85 = load i8, ptr %84, align 1, !tbaa !36
  %86 = zext i8 %85 to i32
  %87 = sub nsw i32 %77, %86
  %88 = mul nsw i32 %70, %87
  %89 = add nsw i32 %53, %88
  %90 = load ptr, ptr %7, align 8, !tbaa !24
  %91 = load i32, ptr %12, align 4, !tbaa !11
  %92 = add nsw i32 %91, 2
  %93 = sext i32 %92 to i64
  %94 = getelementptr inbounds i8, ptr %90, i64 %93
  %95 = load i8, ptr %94, align 1, !tbaa !36
  %96 = zext i8 %95 to i32
  %97 = load ptr, ptr %7, align 8, !tbaa !24
  %98 = load i32, ptr %12, align 4, !tbaa !11
  %99 = sext i32 %98 to i64
  %100 = load i64, ptr %9, align 8, !tbaa !26
  %101 = add nsw i64 %99, %100
  %102 = add nsw i64 %101, 2
  %103 = getelementptr inbounds i8, ptr %97, i64 %102
  %104 = load i8, ptr %103, align 1, !tbaa !36
  %105 = zext i8 %104 to i32
  %106 = sub nsw i32 %96, %105
  %107 = load ptr, ptr %7, align 8, !tbaa !24
  %108 = load i32, ptr %12, align 4, !tbaa !11
  %109 = add nsw i32 %108, 2
  %110 = sext i32 %109 to i64
  %111 = getelementptr inbounds i8, ptr %107, i64 %110
  %112 = load i8, ptr %111, align 1, !tbaa !36
  %113 = zext i8 %112 to i32
  %114 = load ptr, ptr %7, align 8, !tbaa !24
  %115 = load i32, ptr %12, align 4, !tbaa !11
  %116 = sext i32 %115 to i64
  %117 = load i64, ptr %9, align 8, !tbaa !26
  %118 = add nsw i64 %116, %117
  %119 = add nsw i64 %118, 2
  %120 = getelementptr inbounds i8, ptr %114, i64 %119
  %121 = load i8, ptr %120, align 1, !tbaa !36
  %122 = zext i8 %121 to i32
  %123 = sub nsw i32 %113, %122
  %124 = mul nsw i32 %106, %123
  %125 = add nsw i32 %89, %124
  %126 = load ptr, ptr %7, align 8, !tbaa !24
  %127 = load i32, ptr %12, align 4, !tbaa !11
  %128 = add nsw i32 %127, 3
  %129 = sext i32 %128 to i64
  %130 = getelementptr inbounds i8, ptr %126, i64 %129
  %131 = load i8, ptr %130, align 1, !tbaa !36
  %132 = zext i8 %131 to i32
  %133 = load ptr, ptr %7, align 8, !tbaa !24
  %134 = load i32, ptr %12, align 4, !tbaa !11
  %135 = sext i32 %134 to i64
  %136 = load i64, ptr %9, align 8, !tbaa !26
  %137 = add nsw i64 %135, %136
  %138 = add nsw i64 %137, 3
  %139 = getelementptr inbounds i8, ptr %133, i64 %138
  %140 = load i8, ptr %139, align 1, !tbaa !36
  %141 = zext i8 %140 to i32
  %142 = sub nsw i32 %132, %141
  %143 = load ptr, ptr %7, align 8, !tbaa !24
  %144 = load i32, ptr %12, align 4, !tbaa !11
  %145 = add nsw i32 %144, 3
  %146 = sext i32 %145 to i64
  %147 = getelementptr inbounds i8, ptr %143, i64 %146
  %148 = load i8, ptr %147, align 1, !tbaa !36
  %149 = zext i8 %148 to i32
  %150 = load ptr, ptr %7, align 8, !tbaa !24
  %151 = load i32, ptr %12, align 4, !tbaa !11
  %152 = sext i32 %151 to i64
  %153 = load i64, ptr %9, align 8, !tbaa !26
  %154 = add nsw i64 %152, %153
  %155 = add nsw i64 %154, 3
  %156 = getelementptr inbounds i8, ptr %150, i64 %155
  %157 = load i8, ptr %156, align 1, !tbaa !36
  %158 = zext i8 %157 to i32
  %159 = sub nsw i32 %149, %158
  %160 = mul nsw i32 %142, %159
  %161 = add nsw i32 %125, %160
  %162 = load i32, ptr %11, align 4, !tbaa !11
  %163 = add nsw i32 %162, %161
  store i32 %163, ptr %11, align 4, !tbaa !11
  br label %164

164:                                              ; preds = %22
  %165 = load i32, ptr %12, align 4, !tbaa !11
  %166 = add nsw i32 %165, 4
  store i32 %166, ptr %12, align 4, !tbaa !11
  br label %19, !llvm.loop !117

167:                                              ; preds = %19
  %168 = load i64, ptr %9, align 8, !tbaa !26
  %169 = load ptr, ptr %7, align 8, !tbaa !24
  %170 = getelementptr inbounds i8, ptr %169, i64 %168
  store ptr %170, ptr %7, align 8, !tbaa !24
  br label %171

171:                                              ; preds = %167
  %172 = load i32, ptr %13, align 4, !tbaa !11
  %173 = add nsw i32 %172, 1
  store i32 %173, ptr %13, align 4, !tbaa !11
  br label %14, !llvm.loop !118

174:                                              ; preds = %14
  %175 = load i32, ptr %11, align 4, !tbaa !11
  call void @llvm.lifetime.end.p0(i64 4, ptr %13) #9
  call void @llvm.lifetime.end.p0(i64 4, ptr %12) #9
  call void @llvm.lifetime.end.p0(i64 4, ptr %11) #9
  ret i32 %175
}