; Function Attrs: nofree norecurse nosync nounwind memory(argmem: read) uwtable
define internal i32 @vsse_intra8_c(ptr readnone captures(none) %0, ptr noundef readonly captures(none) %1, ptr readnone captures(none) %2, i64 noundef %3, i32 noundef %4) #5 {
  %6 = icmp sgt i32 %4, 1
  br i1 %6, label %.preheader, label %._crit_edge

.preheader:                                       ; preds = %5, %46
  %.055 = phi i32 [ %47, %46 ], [ 1, %5 ]
  %.04954 = phi i32 [ %45, %46 ], [ 0, %5 ]
  %.05053 = phi ptr [ %7, %46 ], [ %1, %5 ]
  %7 = getelementptr i8, ptr %.05053, i64 %3
  br label %8

8:                                                ; preds = %.preheader, %8
  %9 = phi i1 [ true, %.preheader ], [ false, %8 ]
  %indvars.iv = phi i64 [ 0, %.preheader ], [ 4, %8 ]
  %.151 = phi i32 [ %.04954, %.preheader ], [ %45, %8 ]
  %10 = getelementptr inbounds nuw i8, ptr %.05053, i64 %indvars.iv
  %11 = load i8, ptr %10, align 1, !tbaa !20
  %12 = zext i8 %11 to i32
  %13 = getelementptr i8, ptr %7, i64 %indvars.iv
  %14 = load i8, ptr %13, align 1, !tbaa !20
  %15 = zext i8 %14 to i32
  %16 = sub nsw i32 %12, %15
  %17 = mul nsw i32 %16, %16
  %18 = getelementptr inbounds nuw i8, ptr %10, i64 1
  %19 = load i8, ptr %18, align 1, !tbaa !20
  %20 = zext i8 %19 to i32
  %21 = getelementptr i8, ptr %13, i64 1
  %22 = load i8, ptr %21, align 1, !tbaa !20
  %23 = zext i8 %22 to i32
  %24 = sub nsw i32 %20, %23
  %25 = mul nsw i32 %24, %24
  %26 = getelementptr inbounds nuw i8, ptr %10, i64 2
  %27 = load i8, ptr %26, align 1, !tbaa !20
  %28 = zext i8 %27 to i32
  %29 = getelementptr i8, ptr %13, i64 2
  %30 = load i8, ptr %29, align 1, !tbaa !20
  %31 = zext i8 %30 to i32
  %32 = sub nsw i32 %28, %31
  %33 = mul nsw i32 %32, %32
  %34 = getelementptr inbounds nuw i8, ptr %10, i64 3
  %35 = load i8, ptr %34, align 1, !tbaa !20
  %36 = zext i8 %35 to i32
  %37 = getelementptr i8, ptr %13, i64 3
  %38 = load i8, ptr %37, align 1, !tbaa !20
  %39 = zext i8 %38 to i32
  %40 = sub nsw i32 %36, %39
  %41 = mul nsw i32 %40, %40
  %42 = add i32 %17, %.151
  %43 = add i32 %42, %25
  %44 = add i32 %43, %33
  %45 = add i32 %44, %41
  br i1 %9, label %8, label %46, !llvm.loop !104

46:                                               ; preds = %8
  %47 = add nuw nsw i32 %.055, 1
  %exitcond.not = icmp eq i32 %47, %4
  br i1 %exitcond.not, label %._crit_edge, label %.preheader, !llvm.loop !105

._crit_edge:                                      ; preds = %46, %5
  %.049.lcssa = phi i32 [ 0, %5 ], [ %45, %46 ]
  ret i32 %.049.lcssa
}